target datalayout = "e-m:e-p270:32:32-p271:32:32-p272:64:64-i64:64-i128:128-f80:128-n8:16:32:64-S128"
target triple = "x86_64-pc-linux-gnu"

@.str.1 = private unnamed_addr constant [120 x i8] c"generated/home/dtcxzyw/WorkSpace/Projects/compilers/llvm-opt-benchmark/bench/pbrt-v4/pbrt-v4/src/pbrt/util/parallel.cpp\00", align 1
@_ZN4pbrt11ParallelJob10threadPoolE = dso_local global ptr null, align 8
@.str.7 = private unnamed_addr constant [17 x i8] c"Check failed: %s\00", align 1
@.str.19 = private unnamed_addr constant [25 x i8] c"!ParallelJob::threadPool\00", align 1
@_ZN4pbrt10ThreadPoolC1Ei = dso_local unnamed_addr alias void (ptr, i32), ptr @_ZN4pbrt10ThreadPoolC2Ei

; Function Attrs: inlinehint mustprogress nounwind uwtable
define linkonce_odr dso_local noundef nonnull align 4 dereferenceable(4) ptr @_ZSt3maxIiERKT_S2_S2_(ptr noundef nonnull align 4 dereferenceable(4) %0, ptr noundef nonnull align 4 dereferenceable(4) %1) #10 comdat {
  %3 = alloca ptr, align 8
  %4 = alloca ptr, align 8
  %5 = alloca ptr, align 8
  store ptr %0, ptr %4, align 8, !tbaa !44
  store ptr %1, ptr %5, align 8, !tbaa !44
  %6 = load ptr, ptr %4, align 8, !tbaa !44
  %7 = load i32, ptr %6, align 4, !tbaa !30
  %8 = load ptr, ptr %5, align 8, !tbaa !44
  %9 = load i32, ptr %8, align 4, !tbaa !30
  %10 = icmp slt i32 %7, %9
  br i1 %10, label %11, label %13

11:                                               ; preds = %2
  %12 = load ptr, ptr %5, align 8, !tbaa !44
  store ptr %12, ptr %3, align 8
  br label %15

13:                                               ; preds = %2
  %14 = load ptr, ptr %4, align 8, !tbaa !44
  store ptr %14, ptr %3, align 8
  br label %15

15:                                               ; preds = %13, %11
  %16 = load ptr, ptr %3, align 8
  ret ptr %16
}

; Function Attrs: mustprogress uwtable
define dso_local noundef i32 @_ZN4pbrt14AvailableCoresEv() #0 {
  %1 = alloca i32, align 4
  %2 = alloca i32, align 4
  call void @llvm.lifetime.start.p0(i64 4, ptr %1) #18
  store i32 1, ptr %1, align 4, !tbaa !30
  call void @llvm.lifetime.start.p0(i64 4, ptr %2) #18
  %3 = call noundef i32 @_ZNSt6thread20hardware_concurrencyEv() #18
  store i32 %3, ptr %2, align 4, !tbaa !30
  %4 = call noundef nonnull align 4 dereferenceable(4) ptr @_ZSt3maxIiERKT_S2_S2_(ptr noundef nonnull align 4 dereferenceable(4) %1, ptr noundef nonnull align 4 dereferenceable(4) %2)
  %5 = load i32, ptr %4, align 4, !tbaa !30
  call void @llvm.lifetime.end.p0(i64 4, ptr %2) #18
  call void @llvm.lifetime.end.p0(i64 4, ptr %1) #18
  ret i32 %5
}

; Function Attrs: mustprogress uwtable
define dso_local void @_ZN4pbrt12ParallelInitEi(i32 noundef %0) #0 personality ptr @__gxx_personality_v0 {
  %2 = alloca i32, align 4
  %3 = alloca ptr, align 8
  %4 = alloca i32, align 4
  store i32 %0, ptr %2, align 4, !tbaa !30
  %5 = load ptr, ptr @_ZN4pbrt11ParallelJob10threadPoolE, align 8, !tbaa !52
  %6 = icmp ne ptr %5, null
  br i1 %6, label %7, label %9

7:                                                ; preds = %1
  call void @_ZN4pbrt8LogFatalIJRA25_KcEEEvNS_8LogLevelEPS1_iS5_DpOT_(i32 noundef 2, ptr noundef @.str.1, i32 noundef 343, ptr noundef @.str.7, ptr noundef nonnull align 1 dereferenceable(25) @.str.19) #19
  unreachable

8:                                                ; No predecessors!
  br label %9

9:                                                ; preds = %8, %1
  %10 = load i32, ptr %2, align 4, !tbaa !30
  %11 = icmp sle i32 %10, 0
  br i1 %11, label %12, label %14

12:                                               ; preds = %9
  %13 = call noundef i32 @_ZN4pbrt14AvailableCoresEv()
  store i32 %13, ptr %2, align 4, !tbaa !30
  br label %14

14:                                               ; preds = %12, %9
  %15 = call noalias noundef nonnull ptr @_Znwm(i64 noundef 128) #21
  %16 = load i32, ptr %2, align 4, !tbaa !30
  invoke void @_ZN4pbrt10ThreadPoolC1Ei(ptr noundef nonnull align 8 dereferenceable(128) %15, i32 noundef %16)
          to label %17 unwind label %18

17:                                               ; preds = %14
  store ptr %15, ptr @_ZN4pbrt11ParallelJob10threadPoolE, align 8, !tbaa !52
  ret void

18:                                               ; preds = %14
  %19 = landingpad { ptr, i32 }
          cleanup
  %20 = extractvalue { ptr, i32 } %19, 0
  store ptr %20, ptr %3, align 8
  %21 = extractvalue { ptr, i32 } %19, 1
  store i32 %21, ptr %4, align 4
  call void @_ZdlPvm(ptr noundef %15, i64 noundef 128) #22
  br label %22

22:                                               ; preds = %18
  %23 = load ptr, ptr %3, align 8
  %24 = load i32, ptr %4, align 4
  %25 = insertvalue { ptr, i32 } poison, ptr %23, 0
  %26 = insertvalue { ptr, i32 } %25, i32 %24, 1
  resume { ptr, i32 } %26
}