; Function Attrs: mustprogress uwtable
define dso_local void @_ZN4pbrt12ParallelInitEi(i32 noundef %0) local_unnamed_addr #0 personality ptr @__gxx_personality_v0 {
  %2 = load ptr, ptr @_ZN4pbrt11ParallelJob10threadPoolE, align 8, !tbaa !122
  %.not = icmp eq ptr %2, null
  br i1 %.not, label %4, label %3

3:                                                ; preds = %1
  tail call void @_ZN4pbrt8LogFatalIJRA25_KcEEEvNS_8LogLevelEPS1_iS5_DpOT_(i32 noundef 2, ptr noundef nonnull @.str.1, i32 noundef 343, ptr noundef nonnull @.str.7, ptr noundef nonnull align 1 dereferenceable(25) @.str.19) #27
  unreachable

4:                                                ; preds = %1
  %5 = icmp slt i32 %0, 1
  br i1 %5, label %6, label %8

6:                                                ; preds = %4
  %7 = tail call noundef i32 @_ZNSt6thread20hardware_concurrencyEv() #25
  %.sroa.speculated.i = tail call noundef range(i32 1, -2147483648) i32 @llvm.smax.i32(i32 %7, i32 1)
  br label %8

8:                                                ; preds = %6, %4
  %.0 = phi i32 [ %.sroa.speculated.i, %6 ], [ %0, %4 ]
  %9 = tail call noalias noundef nonnull dereferenceable(128) ptr @_Znwm(i64 noundef 128) #28
  invoke void @_ZN4pbrt10ThreadPoolC2Ei(ptr noundef nonnull align 8 dereferenceable(128) %9, i32 noundef %.0)
          to label %10 unwind label %11

10:                                               ; preds = %8
  store ptr %9, ptr @_ZN4pbrt11ParallelJob10threadPoolE, align 8, !tbaa !122
  ret void

11:                                               ; preds = %8
  %12 = landingpad { ptr, i32 }
          cleanup
  tail call void @_ZdlPvm(ptr noundef nonnull %9, i64 noundef 128) #26
  resume { ptr, i32 } %12
}